; Function Attrs: mustprogress uwtable
define void @_ZN5arrow16KeyValueMetadataC2ESt6vectorINSt7__cxx1112basic_stringIcSt11char_traitsIcESaIcEEESaIS7_EES9_(ptr noundef nonnull align 8 dereferenceable(48) initializes((0, 48)) %0, ptr noundef captures(none) %1, ptr noundef captures(none) %2) unnamed_addr #1 align 2 personality ptr @__gxx_personality_v0 {
  %4 = alloca %"class.arrow::util::ArrowLog", align 8
  %5 = load ptr, ptr %1, align 8, !tbaa !33
  store ptr %5, ptr %0, align 8, !tbaa !33
  %6 = getelementptr inbounds nuw i8, ptr %0, i64 8
  %7 = getelementptr inbounds nuw i8, ptr %1, i64 8
  %8 = load ptr, ptr %7, align 8, !tbaa !18
  store ptr %8, ptr %6, align 8, !tbaa !18
  %9 = getelementptr inbounds nuw i8, ptr %0, i64 16
  %10 = getelementptr inbounds nuw i8, ptr %1, i64 16
  %11 = load ptr, ptr %10, align 8, !tbaa !21
  store ptr %11, ptr %9, align 8, !tbaa !21
  tail call void @llvm.memset.p0.i64(ptr noundef nonnull align 8 dereferenceable(24) %1, i8 0, i64 24, i1 false)
  %12 = getelementptr inbounds nuw i8, ptr %0, i64 24
  %13 = load ptr, ptr %2, align 8, !tbaa !33
  store ptr %13, ptr %12, align 8, !tbaa !33
  %14 = getelementptr inbounds nuw i8, ptr %0, i64 32
  %15 = getelementptr inbounds nuw i8, ptr %2, i64 8
  %16 = load ptr, ptr %15, align 8, !tbaa !18
  store ptr %16, ptr %14, align 8, !tbaa !18
  %17 = getelementptr inbounds nuw i8, ptr %0, i64 40
  %18 = getelementptr inbounds nuw i8, ptr %2, i64 16
  %19 = load ptr, ptr %18, align 8, !tbaa !21
  store ptr %19, ptr %17, align 8, !tbaa !21
  tail call void @llvm.memset.p0.i64(ptr noundef nonnull align 8 dereferenceable(24) %2, i8 0, i64 24, i1 false)
  %20 = load ptr, ptr %7, align 8, !tbaa !18
  %21 = load ptr, ptr %1, align 8, !tbaa !33
  %.not = icmp eq ptr %20, %21
  br i1 %.not, label %.critedge10, label %22, !prof !34

22:                                               ; preds = %3
  call void @llvm.lifetime.start.p0(i64 24, ptr nonnull %4) #24
  invoke void @_ZN5arrow4util8ArrowLogC1EPKciNS0_13ArrowLogLevelE(ptr noundef nonnull align 8 dereferenceable(17) %4, ptr noundef nonnull @.str, i32 noundef 70, i32 noundef 3)
          to label %23 unwind label %25

23:                                               ; preds = %22
  %24 = invoke noundef nonnull align 8 dereferenceable(8) ptr @_ZN5arrow4util12ArrowLogBaselsIA49_cEERS1_RKT_(ptr noundef nonnull align 8 dereferenceable(8) %4, ptr noundef nonnull align 1 dereferenceable(49) @.str.2)
          to label %.critedge unwind label %27

.critedge:                                        ; preds = %23
  call void @_ZN5arrow4util8ArrowLogD1Ev(ptr noundef nonnull align 8 dereferenceable(17) %4) #24
  call void @llvm.lifetime.end.p0(i64 24, ptr nonnull %4) #24
  br label %.critedge10

.critedge10:                                      ; preds = %3, %.critedge
  ret void

25:                                               ; preds = %22
  %26 = landingpad { ptr, i32 }
          cleanup
  br label %29

27:                                               ; preds = %23
  %28 = landingpad { ptr, i32 }
          cleanup
  call void @_ZN5arrow4util8ArrowLogD1Ev(ptr noundef nonnull align 8 dereferenceable(17) %4) #24
  br label %29

29:                                               ; preds = %25, %27
  %.pn = phi { ptr, i32 } [ %28, %27 ], [ %26, %25 ]
  call void @llvm.lifetime.end.p0(i64 24, ptr nonnull %4) #24
  call void @_ZNSt6vectorINSt7__cxx1112basic_stringIcSt11char_traitsIcESaIcEEESaIS5_EED2Ev(ptr noundef nonnull align 8 dereferenceable(24) %12) #24
  call void @_ZNSt6vectorINSt7__cxx1112basic_stringIcSt11char_traitsIcESaIcEEESaIS5_EED2Ev(ptr noundef nonnull align 8 dereferenceable(24) %0) #24
  resume { ptr, i32 } %.pn
}